; Function Attrs: nounwind uwtable
define i32 @Sbm_AddCardinConstrPairWise(ptr noundef %0, ptr noundef readonly captures(none) %1, i32 noundef %2) local_unnamed_addr #0 {
  %4 = alloca i32, align 4
  %5 = getelementptr i8, ptr %1, i64 4
  %.val = load i32, ptr %5, align 4
  store i32 %.val, ptr %4, align 4
  %6 = getelementptr i8, ptr %1, i64 8
  %.val4 = load ptr, ptr %6, align 8
  %7 = add nsw i32 %.val, -1
  call fastcc void @Sbm_AddCardinConstrRange(ptr noundef %0, ptr noundef %.val4, i32 noundef 0, i32 noundef %7, ptr noundef %4)
  %8 = load i32, ptr %0, align 8
  %9 = getelementptr inbounds nuw i8, ptr %0, i64 96
  store i32 %8, ptr %9, align 8
  %10 = getelementptr inbounds nuw i8, ptr %0, i64 8
  %11 = load i32, ptr %10, align 8
  %12 = getelementptr inbounds nuw i8, ptr %0, i64 100
  store i32 %11, ptr %12, align 4
  %13 = getelementptr inbounds nuw i8, ptr %0, i64 16
  %14 = load i32, ptr %13, align 8
  %15 = getelementptr inbounds nuw i8, ptr %0, i64 32
  store i32 %14, ptr %15, align 8
  %16 = getelementptr inbounds nuw i8, ptr %0, i64 20
  %17 = load i32, ptr %16, align 4
  %18 = getelementptr inbounds nuw i8, ptr %0, i64 36
  store i32 %17, ptr %18, align 4
  %19 = getelementptr inbounds nuw i8, ptr %0, i64 40
  %20 = load i32, ptr %19, align 4
  %21 = getelementptr inbounds nuw i8, ptr %0, i64 48
  %22 = load i32, ptr %21, align 8
  %23 = shl i32 %20, %22
  %24 = getelementptr inbounds nuw i8, ptr %0, i64 64
  %25 = load ptr, ptr %24, align 8
  %26 = sext i32 %20 to i64
  %27 = getelementptr inbounds ptr, ptr %25, i64 %26
  %28 = load ptr, ptr %27, align 8
  %.val.i.i.i = load i32, ptr %28, align 4
  %29 = or i32 %.val.i.i.i, %23
  %30 = getelementptr inbounds nuw i8, ptr %0, i64 24
  store i32 %29, ptr %30, align 8
  %31 = getelementptr inbounds nuw i8, ptr %0, i64 44
  %32 = load i32, ptr %31, align 4
  %33 = shl i32 %32, %22
  %34 = sext i32 %32 to i64
  %35 = getelementptr inbounds ptr, ptr %25, i64 %34
  %36 = load ptr, ptr %35, align 8
  %.val.i8.i.i = load i32, ptr %36, align 4
  %37 = or i32 %.val.i8.i.i, %33
  %38 = getelementptr inbounds nuw i8, ptr %0, i64 28
  store i32 %37, ptr %38, align 4
  %39 = getelementptr inbounds nuw i8, ptr %0, i64 152
  %40 = load ptr, ptr %39, align 8
  %.not.i = icmp eq ptr %40, null
  br i1 %.not.i, label %sat_solver_bookmark.exit, label %41

41:                                               ; preds = %3
  %42 = getelementptr inbounds nuw i8, ptr %0, i64 120
  %43 = load i64, ptr %42, align 8
  %44 = getelementptr inbounds nuw i8, ptr %0, i64 128
  store i64 %43, ptr %44, align 8
  %45 = getelementptr inbounds nuw i8, ptr %0, i64 144
  %46 = load ptr, ptr %45, align 8
  %47 = sext i32 %8 to i64
  %48 = shl nsw i64 %47, 3
  call void @llvm.memcpy.p0.p0.i64(ptr nonnull align 8 %40, ptr align 8 %46, i64 %48, i1 false)
  br label %sat_solver_bookmark.exit

sat_solver_bookmark.exit:                         ; preds = %3, %41
  %49 = load i32, ptr %4, align 4
  ret i32 %49
}